; Function Attrs: mustprogress nounwind uwtable
define dso_local void @_ZN4node6timers11BindingData22ToggleImmediateRefImplEPS1_b(ptr nocapture noundef readonly %data, i1 noundef zeroext %ref) local_unnamed_addr #3 align 2 {
entry:
  %realm_.i = getelementptr inbounds i8, ptr %data, i64 16
  %0 = load ptr, ptr %realm_.i, align 8
  %env_.i.i = getelementptr inbounds i8, ptr %0, i64 176
  %1 = load ptr, ptr %env_.i.i, align 8
  tail call void @_ZN4node11Environment18ToggleImmediateRefEb(ptr noundef nonnull align 8 dereferenceable(2872) %1, i1 noundef zeroext %ref) #15
  ret void
}